target datalayout = "e-m:e-p270:32:32-p271:32:32-p272:64:64-i64:64-i128:128-f80:128-n8:16:32:64-S128"
target triple = "x86_64-pc-linux-gnu"

%class.Node = type <{ ptr, ptr, ptr, i32, i32, i32, i32, i32, i32, i32, [4 x i8] }>
%class.Phase = type { i32, ptr }
%class.PhaseValues = type { %class.PhaseTransform, i8, ptr, ptr, [137 x ptr], [137 x ptr], [20 x ptr] }
%class.PhaseTransform = type { ptr, %class.Phase }

@_ZN4Type10_zero_typeE = external global [20 x ptr], align 16

; Function Attrs: mustprogress nounwind uwtable
define linkonce_odr hidden noundef ptr @_ZN4Type13get_zero_typeE9BasicType(i8 noundef zeroext %0) #1 comdat align 2 {
  %2 = alloca i8, align 1
  store i8 %0, ptr %2, align 1
  %3 = load i8, ptr %2, align 1
  %4 = zext i8 %3 to i64
  %5 = getelementptr inbounds [20 x ptr], ptr @_ZN4Type10_zero_typeE, i64 0, i64 %4
  %6 = load ptr, ptr %5, align 8
  ret ptr %6
}

; Function Attrs: mustprogress nounwind uwtable
define linkonce_odr hidden noundef ptr @_ZNK4Node2inEj(ptr noundef nonnull align 8 dereferenceable(52) %0, i32 noundef %1) #1 comdat align 2 {
  %3 = alloca ptr, align 8
  %4 = alloca i32, align 4
  store ptr %0, ptr %3, align 8
  store i32 %1, ptr %4, align 4
  %5 = load ptr, ptr %3, align 8
  %6 = getelementptr inbounds %class.Node, ptr %5, i32 0, i32 1
  %7 = load ptr, ptr %6, align 8
  %8 = load i32, ptr %4, align 4
  %9 = zext i32 %8 to i64
  %10 = getelementptr inbounds ptr, ptr %7, i64 %9
  %11 = load ptr, ptr %10, align 8
  ret ptr %11
}

; Function Attrs: mustprogress nounwind uwtable
define hidden noundef ptr @_ZN11PhaseValues7zeroconE9BasicType(ptr noundef nonnull align 8 dereferenceable(2400) %0, i8 noundef zeroext %1) #1 align 2 {
  %3 = alloca ptr, align 8
  %4 = alloca ptr, align 8
  %5 = alloca i8, align 1
  %6 = alloca ptr, align 8
  store ptr %0, ptr %4, align 8
  store i8 %1, ptr %5, align 1
  %7 = load ptr, ptr %4, align 8
  %8 = getelementptr inbounds %class.PhaseValues, ptr %7, i32 0, i32 6
  %9 = load i8, ptr %5, align 1
  %10 = zext i8 %9 to i64
  %11 = getelementptr inbounds [20 x ptr], ptr %8, i64 0, i64 %10
  %12 = load ptr, ptr %11, align 8
  store ptr %12, ptr %6, align 8
  %13 = load ptr, ptr %6, align 8
  %14 = icmp ne ptr %13, null
  br i1 %14, label %15, label %21

15:                                               ; preds = %2
  %16 = load ptr, ptr %6, align 8
  %17 = call noundef ptr @_ZNK4Node2inEj(ptr noundef nonnull align 8 dereferenceable(52) %16, i32 noundef 0)
  %18 = icmp ne ptr %17, null
  br i1 %18, label %19, label %21

19:                                               ; preds = %15
  %20 = load ptr, ptr %6, align 8
  store ptr %20, ptr %3, align 8
  br label %31

21:                                               ; preds = %15, %2
  %22 = load i8, ptr %5, align 1
  %23 = call noundef ptr @_ZN4Type13get_zero_typeE9BasicType(i8 noundef zeroext %22)
  %24 = call noundef ptr @_ZN11PhaseValues16uncached_makeconEPK4Type(ptr noundef nonnull align 8 dereferenceable(2400) %7, ptr noundef %23)
  store ptr %24, ptr %6, align 8
  %25 = load ptr, ptr %6, align 8
  %26 = getelementptr inbounds %class.PhaseValues, ptr %7, i32 0, i32 6
  %27 = load i8, ptr %5, align 1
  %28 = zext i8 %27 to i64
  %29 = getelementptr inbounds [20 x ptr], ptr %26, i64 0, i64 %28
  store ptr %25, ptr %29, align 8
  %30 = load ptr, ptr %6, align 8
  store ptr %30, ptr %3, align 8
  br label %31

31:                                               ; preds = %21, %19
  %32 = load ptr, ptr %3, align 8
  ret ptr %32
}