; Function Attrs: mustprogress nounwind uwtable
define hidden noundef ptr @_ZN11PhaseValues7zeroconE9BasicType(ptr noundef nonnull align 8 dereferenceable(2400) %0, i8 noundef zeroext %1) local_unnamed_addr #0 align 2 {
  %3 = getelementptr inbounds i8, ptr %0, i64 2240
  %4 = zext i8 %1 to i64
  %5 = getelementptr inbounds [20 x ptr], ptr %3, i64 0, i64 %4
  %6 = load ptr, ptr %5, align 8
  %.not = icmp eq ptr %6, null
  br i1 %.not, label %11, label %7

7:                                                ; preds = %2
  %8 = getelementptr inbounds i8, ptr %6, i64 8
  %9 = load ptr, ptr %8, align 8
  %10 = load ptr, ptr %9, align 8
  %.not10 = icmp eq ptr %10, null
  br i1 %.not10, label %11, label %15

11:                                               ; preds = %7, %2
  %12 = getelementptr inbounds [20 x ptr], ptr @_ZN4Type10_zero_typeE, i64 0, i64 %4
  %13 = load ptr, ptr %12, align 8
  %14 = tail call noundef ptr @_ZN11PhaseValues16uncached_makeconEPK4Type(ptr noundef nonnull align 8 dereferenceable(2400) %0, ptr noundef %13)
  store ptr %14, ptr %5, align 8
  br label %15

15:                                               ; preds = %7, %11
  %.0 = phi ptr [ %14, %11 ], [ %6, %7 ]
  ret ptr %.0
}